; Function Attrs: mustprogress uwtable
define internal void @_ZNK7doctest6detail12ContextScopeIZN12_GLOBAL__N_121DOCTEST_ANON_CLASS_521fEvEUlPSoE_E9stringifyES4_(ptr nocapture nonnull readnone align 8 %0, ptr noundef %1) unnamed_addr #2 align 2 personality ptr @__gxx_personality_v0 {
  %3 = alloca %"struct.doctest::detail::MessageBuilder", align 8
  call void @llvm.lifetime.start.p0(i64 56, ptr nonnull %3)
  call void @_ZN7doctest6detail14MessageBuilderC1EPKciNS_10assertType4EnumE(ptr noundef nonnull align 8 dereferenceable(49) %3, ptr noundef nonnull @.str.4, i32 noundef 352, i32 noundef 1)
  %4 = getelementptr inbounds i8, ptr %3, i64 40
  store ptr %1, ptr %4, align 8
  %5 = invoke noundef nonnull align 8 dereferenceable(49) ptr @_ZN7doctest6detail14MessageBuildercmIA38_cEERS1_RKT_(ptr noundef nonnull align 8 dereferenceable(49) %3, ptr noundef nonnull align 1 dereferenceable(38) @.str.119)
          to label %_ZZN12_GLOBAL__N_121DOCTEST_ANON_CLASS_521fEvENKUlPSoE_clES1_.exit unwind label %6

6:                                                ; preds = %2
  %7 = landingpad { ptr, i32 }
          cleanup
  call void @_ZN7doctest6detail14MessageBuilderD1Ev(ptr noundef nonnull align 8 dereferenceable(49) %3) #14
  resume { ptr, i32 } %7

_ZZN12_GLOBAL__N_121DOCTEST_ANON_CLASS_521fEvENKUlPSoE_clES1_.exit: ; preds = %2
  call void @_ZN7doctest6detail14MessageBuilderD1Ev(ptr noundef nonnull align 8 dereferenceable(49) %3) #14
  call void @llvm.lifetime.end.p0(i64 56, ptr nonnull %3)
  ret void
}